target datalayout = "e-m:e-p270:32:32-p271:32:32-p272:64:64-i64:64-i128:128-f80:128-n8:16:32:64-S128"
target triple = "x86_64-pc-linux-gnu"

%struct.MessageHeader = type { [4 x i8], %struct.Version, i8, i8, i32, i32, i32, ptr }
%struct.Version = type { i8, i8 }
%struct._packet_info = type { ptr, ptr, i32, i32, %struct.nstime_t, %struct.nstime_t, %struct.nstime_t, i8, ptr, ptr, ptr, ptr, %struct._address, %struct._address, %struct._address, %struct._address, %struct._address, %struct._address, i32, ptr, i8, [3 x i8], %struct.anon, i32, i32, i32, i32, ptr, i8, ptr, ptr, i16, i16, i32, i32, i16, i32, i32, ptr, ptr, ptr, i8, i8, i16, i16, i16, i32, i16, i16, ptr, ptr, ptr, ptr, ptr, i32, i32 }
%struct.nstime_t = type { i64, i32 }
%struct._address = type { i32, i32, ptr, ptr }
%struct.anon = type { i8, [3 x i8] }

@hf_giop_locale_status = internal global i32 0, align 4
@hf_giop_addressing_disposition = internal global i32 0, align 4
@hf_giop_req_id = internal global i32 0, align 4
@ett_giop_locate_reply = internal global i32 0, align 4
@.str.261 = private unnamed_addr constant [7 x i8] c" id=%u\00", align 1
@.str.281 = private unnamed_addr constant [31 x i8] c"General Inter-ORB Locate Reply\00", align 1

; Function Attrs: null_pointer_is_valid sspstrong uwtable
define zeroext i16 @get_CDR_ushort(ptr noundef %0, ptr noundef %1, i1 noundef zeroext %2, i32 noundef %3) #0 {
  %5 = alloca ptr, align 8
  %6 = alloca ptr, align 8
  %7 = alloca i8, align 1
  %8 = alloca i32, align 4
  %9 = alloca i16, align 2
  store ptr %0, ptr %5, align 8
  store ptr %1, ptr %6, align 8
  %10 = zext i1 %2 to i8
  store i8 %10, ptr %7, align 1
  store i32 %3, ptr %8, align 4
  call void @llvm.lifetime.start.p0(i64 2, ptr %9) #14
  br label %11

11:                                               ; preds = %18, %4
  %12 = load ptr, ptr %6, align 8
  %13 = load i32, ptr %12, align 4
  %14 = load i32, ptr %8, align 4
  %15 = add i32 %13, %14
  %16 = srem i32 %15, 2
  %17 = icmp ne i32 %16, 0
  br i1 %17, label %18, label %22

18:                                               ; preds = %11
  %19 = load ptr, ptr %6, align 8
  %20 = load i32, ptr %19, align 4
  %21 = add i32 %20, 1
  store i32 %21, ptr %19, align 4
  br label %11, !llvm.loop !26

22:                                               ; preds = %11
  %23 = load i8, ptr %7, align 1, !range !8, !noundef !9
  %24 = trunc i8 %23 to i1
  br i1 %24, label %25, label %31

25:                                               ; preds = %22
  %26 = load ptr, ptr %5, align 8
  %27 = load ptr, ptr %6, align 8
  %28 = load i32, ptr %27, align 4
  %29 = call zeroext i16 @tvb_get_ntohs(ptr noundef %26, i32 noundef %28)
  %30 = zext i16 %29 to i32
  br label %37

31:                                               ; preds = %22
  %32 = load ptr, ptr %5, align 8
  %33 = load ptr, ptr %6, align 8
  %34 = load i32, ptr %33, align 4
  %35 = call zeroext i16 @tvb_get_letohs(ptr noundef %32, i32 noundef %34)
  %36 = zext i16 %35 to i32
  br label %37

37:                                               ; preds = %31, %25
  %38 = phi i32 [ %30, %25 ], [ %36, %31 ]
  %39 = trunc i32 %38 to i16
  store i16 %39, ptr %9, align 2
  %40 = load ptr, ptr %6, align 8
  %41 = load i32, ptr %40, align 4
  %42 = add i32 %41, 2
  store i32 %42, ptr %40, align 4
  %43 = load i16, ptr %9, align 2
  call void @llvm.lifetime.end.p0(i64 2, ptr %9) #14
  ret i16 %43
}

; Function Attrs: null_pointer_is_valid sspstrong uwtable
define i32 @get_CDR_ulong(ptr noundef %0, ptr noundef %1, i1 noundef zeroext %2, i32 noundef %3) #0 {
  %5 = alloca ptr, align 8
  %6 = alloca ptr, align 8
  %7 = alloca i8, align 1
  %8 = alloca i32, align 4
  %9 = alloca i32, align 4
  store ptr %0, ptr %5, align 8
  store ptr %1, ptr %6, align 8
  %10 = zext i1 %2 to i8
  store i8 %10, ptr %7, align 1
  store i32 %3, ptr %8, align 4
  call void @llvm.lifetime.start.p0(i64 4, ptr %9) #14
  br label %11

11:                                               ; preds = %18, %4
  %12 = load ptr, ptr %6, align 8
  %13 = load i32, ptr %12, align 4
  %14 = load i32, ptr %8, align 4
  %15 = add i32 %13, %14
  %16 = srem i32 %15, 4
  %17 = icmp ne i32 %16, 0
  br i1 %17, label %18, label %22

18:                                               ; preds = %11
  %19 = load ptr, ptr %6, align 8
  %20 = load i32, ptr %19, align 4
  %21 = add i32 %20, 1
  store i32 %21, ptr %19, align 4
  br label %11, !llvm.loop !10

22:                                               ; preds = %11
  %23 = load i8, ptr %7, align 1, !range !8, !noundef !9
  %24 = trunc i8 %23 to i1
  br i1 %24, label %25, label %30

25:                                               ; preds = %22
  %26 = load ptr, ptr %5, align 8
  %27 = load ptr, ptr %6, align 8
  %28 = load i32, ptr %27, align 4
  %29 = call i32 @tvb_get_ntohl(ptr noundef %26, i32 noundef %28)
  br label %35

30:                                               ; preds = %22
  %31 = load ptr, ptr %5, align 8
  %32 = load ptr, ptr %6, align 8
  %33 = load i32, ptr %32, align 4
  %34 = call i32 @tvb_get_letohl(ptr noundef %31, i32 noundef %33)
  br label %35

35:                                               ; preds = %30, %25
  %36 = phi i32 [ %29, %25 ], [ %34, %30 ]
  store i32 %36, ptr %9, align 4
  %37 = load ptr, ptr %6, align 8
  %38 = load i32, ptr %37, align 4
  %39 = add i32 %38, 4
  store i32 %39, ptr %37, align 4
  %40 = load i32, ptr %9, align 4
  call void @llvm.lifetime.end.p0(i64 4, ptr %9) #14
  ret i32 %40
}

; Function Attrs: null_pointer_is_valid sspstrong uwtable
define internal void @dissect_giop_locate_reply(ptr noundef %0, ptr noundef %1, ptr noundef %2, ptr noundef %3, i1 noundef zeroext %4) #0 {
  %6 = alloca ptr, align 8
  %7 = alloca ptr, align 8
  %8 = alloca ptr, align 8
  %9 = alloca ptr, align 8
  %10 = alloca i8, align 1
  %11 = alloca i32, align 4
  %12 = alloca i32, align 4
  %13 = alloca i32, align 4
  %14 = alloca i16, align 2
  %15 = alloca ptr, align 8
  store ptr %0, ptr %6, align 8
  store ptr %1, ptr %7, align 8
  store ptr %2, ptr %8, align 8
  store ptr %3, ptr %9, align 8
  %16 = zext i1 %4 to i8
  store i8 %16, ptr %10, align 1
  call void @llvm.lifetime.start.p0(i64 4, ptr %11) #14
  store i32 0, ptr %11, align 4
  call void @llvm.lifetime.start.p0(i64 4, ptr %12) #14
  call void @llvm.lifetime.start.p0(i64 4, ptr %13) #14
  call void @llvm.lifetime.start.p0(i64 2, ptr %14) #14
  call void @llvm.lifetime.start.p0(i64 8, ptr %15) #14
  %17 = load ptr, ptr %8, align 8
  %18 = load ptr, ptr %6, align 8
  %19 = load i32, ptr %11, align 4
  %20 = load i32, ptr @ett_giop_locate_reply, align 4
  %21 = call ptr @proto_tree_add_subtree(ptr noundef %17, ptr noundef %18, i32 noundef %19, i32 noundef -1, i32 noundef %20, ptr noundef null, ptr noundef @.str.281)
  store ptr %21, ptr %15, align 8
  %22 = load ptr, ptr %6, align 8
  %23 = load i8, ptr %10, align 1, !range !8, !noundef !9
  %24 = trunc i8 %23 to i1
  %25 = call i32 @get_CDR_ulong(ptr noundef %22, ptr noundef %11, i1 noundef zeroext %24, i32 noundef 12)
  store i32 %25, ptr %12, align 4
  %26 = load ptr, ptr %7, align 8
  %27 = getelementptr inbounds nuw %struct._packet_info, ptr %26, i32 0, i32 1
  %28 = load ptr, ptr %27, align 8
  %29 = load i32, ptr %12, align 4
  call void (ptr, i32, ptr, ...) @col_append_fstr(ptr noundef %28, i32 noundef 25, ptr noundef @.str.261, i32 noundef %29)
  %30 = load ptr, ptr %15, align 8
  %31 = load i32, ptr @hf_giop_req_id, align 4
  %32 = load ptr, ptr %6, align 8
  %33 = load i32, ptr %11, align 4
  %34 = sub i32 %33, 4
  %35 = load i32, ptr %12, align 4
  %36 = call ptr @proto_tree_add_uint(ptr noundef %30, i32 noundef %31, ptr noundef %32, i32 noundef %34, i32 noundef 4, i32 noundef %35)
  %37 = load ptr, ptr %6, align 8
  %38 = load i8, ptr %10, align 1, !range !8, !noundef !9
  %39 = trunc i8 %38 to i1
  %40 = call i32 @get_CDR_ulong(ptr noundef %37, ptr noundef %11, i1 noundef zeroext %39, i32 noundef 12)
  store i32 %40, ptr %13, align 4
  %41 = load ptr, ptr %15, align 8
  %42 = load i32, ptr @hf_giop_locale_status, align 4
  %43 = load ptr, ptr %6, align 8
  %44 = load i32, ptr %11, align 4
  %45 = sub i32 %44, 4
  %46 = load i32, ptr %13, align 4
  %47 = call ptr @proto_tree_add_uint(ptr noundef %41, i32 noundef %42, ptr noundef %43, i32 noundef %45, i32 noundef 4, i32 noundef %46)
  %48 = load ptr, ptr %9, align 8
  %49 = getelementptr inbounds nuw %struct.MessageHeader, ptr %48, i32 0, i32 1
  %50 = getelementptr inbounds nuw %struct.Version, ptr %49, i32 0, i32 1
  %51 = load i8, ptr %50, align 1
  %52 = zext i8 %51 to i32
  %53 = icmp sgt i32 %52, 1
  br i1 %53, label %54, label %64

54:                                               ; preds = %5
  br label %55

55:                                               ; preds = %60, %54
  %56 = load i32, ptr %11, align 4
  %57 = add i32 %56, 12
  %58 = srem i32 %57, 8
  %59 = icmp ne i32 %58, 0
  br i1 %59, label %60, label %63

60:                                               ; preds = %55
  %61 = load i32, ptr %11, align 4
  %62 = add i32 %61, 1
  store i32 %62, ptr %11, align 4
  br label %55, !llvm.loop !33

63:                                               ; preds = %55
  br label %64

64:                                               ; preds = %63, %5
  %65 = load i32, ptr %13, align 4
  switch i32 %65, label %90 [
    i32 2, label %66
    i32 3, label %66
    i32 4, label %72
    i32 5, label %77
  ]

66:                                               ; preds = %64, %64
  %67 = load ptr, ptr %6, align 8
  %68 = load ptr, ptr %7, align 8
  %69 = load ptr, ptr %15, align 8
  %70 = load i8, ptr %10, align 1, !range !8, !noundef !9
  %71 = trunc i8 %70 to i1
  call void @decode_IOR(ptr noundef %67, ptr noundef %68, ptr noundef %69, ptr noundef %11, i32 noundef 12, i1 noundef zeroext %71)
  br label %91

72:                                               ; preds = %64
  %73 = load ptr, ptr %6, align 8
  %74 = load ptr, ptr %8, align 8
  %75 = load i8, ptr %10, align 1, !range !8, !noundef !9
  %76 = trunc i8 %75 to i1
  call void @decode_SystemExceptionReplyBody(ptr noundef %73, ptr noundef %74, ptr noundef %11, i1 noundef zeroext %76, i32 noundef 12)
  br label %91

77:                                               ; preds = %64
  %78 = load ptr, ptr %6, align 8
  %79 = load i8, ptr %10, align 1, !range !8, !noundef !9
  %80 = trunc i8 %79 to i1
  %81 = call zeroext i16 @get_CDR_ushort(ptr noundef %78, ptr noundef %11, i1 noundef zeroext %80, i32 noundef 12)
  store i16 %81, ptr %14, align 2
  %82 = load ptr, ptr %8, align 8
  %83 = load i32, ptr @hf_giop_addressing_disposition, align 4
  %84 = load ptr, ptr %6, align 8
  %85 = load i32, ptr %11, align 4
  %86 = sub i32 %85, 2
  %87 = load i16, ptr %14, align 2
  %88 = zext i16 %87 to i32
  %89 = call ptr @proto_tree_add_uint(ptr noundef %82, i32 noundef %83, ptr noundef %84, i32 noundef %86, i32 noundef 2, i32 noundef %88)
  br label %91

90:                                               ; preds = %64
  br label %91

91:                                               ; preds = %90, %77, %72, %66
  call void @llvm.lifetime.end.p0(i64 8, ptr %15) #14
  call void @llvm.lifetime.end.p0(i64 2, ptr %14) #14
  call void @llvm.lifetime.end.p0(i64 4, ptr %13) #14
  call void @llvm.lifetime.end.p0(i64 4, ptr %12) #14
  call void @llvm.lifetime.end.p0(i64 4, ptr %11) #14
  ret void
}