; Function Attrs: null_pointer_is_valid sspstrong uwtable
define internal fastcc void @dissect_giop_locate_reply(ptr noundef %0, ptr noundef %1, ptr noundef %2, ptr noundef readonly captures(none) %3, i1 noundef zeroext %4) unnamed_addr #0 {
  %6 = alloca i32, align 4
  call void @llvm.lifetime.start.p0(i64 4, ptr nonnull %6) #17
  %7 = load i32, ptr @ett_giop_locate_reply, align 4
  %8 = tail call ptr @proto_tree_add_subtree(ptr noundef %2, ptr noundef %0, i32 noundef 0, i32 noundef -1, i32 noundef %7, ptr noundef null, ptr noundef nonnull @.str.281)
  br i1 %4, label %9, label %11

9:                                                ; preds = %5
  %10 = tail call i32 @tvb_get_ntohl(ptr noundef %0, i32 noundef 0)
  br label %13

11:                                               ; preds = %5
  %12 = tail call i32 @tvb_get_letohl(ptr noundef %0, i32 noundef 0)
  br label %13

13:                                               ; preds = %11, %9
  %14 = phi i32 [ %10, %9 ], [ %12, %11 ]
  %15 = getelementptr inbounds nuw i8, ptr %1, i64 8
  %16 = load ptr, ptr %15, align 8
  tail call void (ptr, i32, ptr, ...) @col_append_fstr(ptr noundef %16, i32 noundef 25, ptr noundef nonnull @.str.261, i32 noundef %14)
  %17 = load i32, ptr @hf_giop_req_id, align 4
  %18 = tail call ptr @proto_tree_add_uint(ptr noundef %8, i32 noundef %17, ptr noundef %0, i32 noundef 0, i32 noundef 4, i32 noundef %14)
  br i1 %4, label %19, label %21

19:                                               ; preds = %13
  %20 = tail call i32 @tvb_get_ntohl(ptr noundef %0, i32 noundef 4)
  br label %get_CDR_ulong.exit32

21:                                               ; preds = %13
  %22 = tail call i32 @tvb_get_letohl(ptr noundef %0, i32 noundef 4)
  br label %get_CDR_ulong.exit32

get_CDR_ulong.exit32:                             ; preds = %19, %21
  %23 = phi i32 [ %20, %19 ], [ %22, %21 ]
  store i32 8, ptr %6, align 4
  %24 = load i32, ptr @hf_giop_locale_status, align 4
  %25 = tail call ptr @proto_tree_add_uint(ptr noundef %8, i32 noundef %24, ptr noundef %0, i32 noundef 4, i32 noundef 4, i32 noundef %23)
  %26 = getelementptr inbounds nuw i8, ptr %3, i64 5
  %27 = load i8, ptr %26, align 1
  %28 = icmp ugt i8 %27, 1
  br i1 %28, label %.preheader, label %32

.preheader:                                       ; preds = %get_CDR_ulong.exit32, %.preheader
  %29 = phi i32 [ %31, %.preheader ], [ 8, %get_CDR_ulong.exit32 ]
  %30 = and i32 %29, 7
  %.not = icmp eq i32 %30, 4
  %31 = add i32 %29, 1
  br i1 %.not, label %.loopexit, label %.preheader, !llvm.loop !45

.loopexit:                                        ; preds = %.preheader
  store i32 %29, ptr %6, align 4
  br label %32

32:                                               ; preds = %.loopexit, %get_CDR_ulong.exit32
  %.promoted.i33 = phi i32 [ %29, %.loopexit ], [ 8, %get_CDR_ulong.exit32 ]
  switch i32 %23, label %43 [
    i32 2, label %33
    i32 3, label %33
    i32 4, label %34
    i32 5, label %35
  ]

33:                                               ; preds = %32, %32
  call fastcc void @decode_IOR(ptr noundef %0, ptr noundef %1, ptr noundef %8, ptr noundef nonnull %6, i32 noundef 12, i1 noundef zeroext %4)
  br label %43

34:                                               ; preds = %32
  call fastcc void @decode_SystemExceptionReplyBody(ptr noundef %0, ptr noundef %2, ptr noundef nonnull %6, i1 noundef zeroext %4)
  br label %43

35:                                               ; preds = %32
  br i1 %4, label %36, label %38

36:                                               ; preds = %35
  %37 = tail call zeroext i16 @tvb_get_ntohs(ptr noundef %0, i32 noundef %.promoted.i33)
  br label %get_CDR_ushort.exit

38:                                               ; preds = %35
  %39 = tail call zeroext i16 @tvb_get_letohs(ptr noundef %0, i32 noundef %.promoted.i33)
  br label %get_CDR_ushort.exit

get_CDR_ushort.exit:                              ; preds = %36, %38
  %.in.i = phi i16 [ %37, %36 ], [ %39, %38 ]
  %40 = load i32, ptr @hf_giop_addressing_disposition, align 4
  %41 = zext i16 %.in.i to i32
  %42 = tail call ptr @proto_tree_add_uint(ptr noundef %2, i32 noundef %40, ptr noundef %0, i32 noundef %.promoted.i33, i32 noundef 2, i32 noundef %41)
  br label %43

43:                                               ; preds = %32, %get_CDR_ushort.exit, %34, %33
  call void @llvm.lifetime.end.p0(i64 4, ptr nonnull %6) #17
  ret void
}